target datalayout = "e-m:e-p270:32:32-p271:32:32-p272:64:64-i64:64-i128:128-f80:128-n8:16:32:64-S128"
target triple = "x86_64-pc-linux-gnu"

%struct.dt_pthread_mutex_t = type { %union.pthread_mutex_t }
%union.pthread_mutex_t = type { %struct.__pthread_mutex_s }
%struct.__pthread_mutex_s = type { i32, i32, i32, i32, i32, i16, i16, %struct.__pthread_internal_list }
%struct.__pthread_internal_list = type { ptr, ptr }
%struct.dt_camctl_t = type { %struct.dt_pthread_mutex_t, %struct.dt_pthread_mutex_t, i64, ptr, ptr, ptr, ptr, ptr, ptr, ptr, ptr, i32, i32, i32 }
%struct.dt_camera_t = type { ptr, ptr, %struct.CameraText, ptr, ptr, %struct.dt_pthread_mutex_t, i32, i32, i32, i32, i32, i32, i32, i32, i32, ptr, %struct.dt_pthread_mutex_t, ptr, %struct.anon, ptr, ptr, i32, i32, i32, i32, ptr, i32, i32, i32, i32, i32, i32, i32, i32, i64, %struct.dt_pthread_mutex_t, %struct.dt_pthread_mutex_t }
%struct.CameraText = type { [32768 x i8] }
%struct.anon = type { ptr, i32 }
%struct._GList = type { ptr, ptr, ptr }

; Function Attrs: nounwind uwtable
define i32 @dt_camctl_can_enter_tether_mode(ptr noundef %0, ptr noundef %1) #0 {
  %3 = alloca i32, align 4
  %4 = alloca ptr, align 8
  %5 = alloca ptr, align 8
  %6 = alloca ptr, align 8
  store ptr %0, ptr %4, align 8, !tbaa !6
  store ptr %1, ptr %5, align 8, !tbaa !21
  %7 = load ptr, ptr %5, align 8, !tbaa !21
  %8 = icmp eq ptr %7, null
  br i1 %8, label %9, label %13

9:                                                ; preds = %2
  %10 = load ptr, ptr %4, align 8, !tbaa !6
  %11 = getelementptr inbounds nuw %struct.dt_camctl_t, ptr %10, i32 0, i32 9
  %12 = load ptr, ptr %11, align 8, !tbaa !65
  store ptr %12, ptr %5, align 8, !tbaa !21
  br label %13

13:                                               ; preds = %9, %2
  %14 = load ptr, ptr %5, align 8, !tbaa !21
  %15 = icmp eq ptr %14, null
  br i1 %15, label %16, label %20

16:                                               ; preds = %13
  %17 = load ptr, ptr %4, align 8, !tbaa !6
  %18 = getelementptr inbounds nuw %struct.dt_camctl_t, ptr %17, i32 0, i32 10
  %19 = load ptr, ptr %18, align 8, !tbaa !11
  store ptr %19, ptr %5, align 8, !tbaa !21
  br label %20

20:                                               ; preds = %16, %13
  %21 = load ptr, ptr %5, align 8, !tbaa !21
  %22 = icmp eq ptr %21, null
  br i1 %22, label %23, label %34

23:                                               ; preds = %20
  %24 = load ptr, ptr %4, align 8, !tbaa !6
  %25 = getelementptr inbounds nuw %struct.dt_camctl_t, ptr %24, i32 0, i32 4
  %26 = load ptr, ptr %25, align 8, !tbaa !84
  %27 = icmp ne ptr %26, null
  br i1 %27, label %28, label %34

28:                                               ; preds = %23
  %29 = load ptr, ptr %4, align 8, !tbaa !6
  %30 = getelementptr inbounds nuw %struct.dt_camctl_t, ptr %29, i32 0, i32 4
  %31 = load ptr, ptr %30, align 8, !tbaa !84
  %32 = getelementptr inbounds nuw %struct._GList, ptr %31, i32 0, i32 0
  %33 = load ptr, ptr %32, align 8, !tbaa !86
  store ptr %33, ptr %5, align 8, !tbaa !21
  br label %34

34:                                               ; preds = %28, %23, %20
  %35 = load ptr, ptr %5, align 8, !tbaa !21
  %36 = icmp ne ptr %35, null
  br i1 %36, label %37, label %47

37:                                               ; preds = %34
  %38 = load ptr, ptr %5, align 8, !tbaa !21
  %39 = getelementptr inbounds nuw %struct.dt_camera_t, ptr %38, i32 0, i32 7
  %40 = load i32, ptr %39, align 4, !tbaa !114
  %41 = icmp ne i32 %40, 0
  br i1 %41, label %42, label %47

42:                                               ; preds = %37
  call void @llvm.lifetime.start.p0(i64 8, ptr %6) #10
  %43 = load ptr, ptr %4, align 8, !tbaa !6
  store ptr %43, ptr %6, align 8, !tbaa !6
  %44 = load ptr, ptr %5, align 8, !tbaa !21
  %45 = load ptr, ptr %6, align 8, !tbaa !6
  %46 = getelementptr inbounds nuw %struct.dt_camctl_t, ptr %45, i32 0, i32 9
  store ptr %44, ptr %46, align 8, !tbaa !65
  store i32 1, ptr %3, align 4
  call void @llvm.lifetime.end.p0(i64 8, ptr %6) #10
  br label %48

47:                                               ; preds = %37, %34
  store i32 0, ptr %3, align 4
  br label %48

48:                                               ; preds = %47, %42
  %49 = load i32, ptr %3, align 4
  ret i32 %49
}