; Function Attrs: mustprogress nofree norecurse nosync nounwind willreturn memory(read, argmem: readwrite, inaccessiblemem: none) uwtable
define range(i32 0, 2) i32 @dt_camctl_can_enter_tether_mode(ptr noundef captures(none) %0, ptr noundef %1) local_unnamed_addr #7 {
  %3 = icmp eq ptr %1, null
  br i1 %3, label %4, label %.thread21

4:                                                ; preds = %2
  %5 = getelementptr inbounds nuw i8, ptr %0, i64 136
  %6 = load ptr, ptr %5, align 8, !tbaa !61
  %7 = icmp eq ptr %6, null
  br i1 %7, label %8, label %.thread21

8:                                                ; preds = %4
  %9 = getelementptr inbounds nuw i8, ptr %0, i64 144
  %10 = load ptr, ptr %9, align 8, !tbaa !6
  %11 = icmp eq ptr %10, null
  br i1 %11, label %12, label %.thread21

12:                                               ; preds = %8
  %13 = getelementptr inbounds nuw i8, ptr %0, i64 96
  %14 = load ptr, ptr %13, align 8, !tbaa !77
  %.not = icmp eq ptr %14, null
  br i1 %.not, label %.thread25, label %15

15:                                               ; preds = %12
  %16 = load ptr, ptr %14, align 8, !tbaa !78
  %.not15 = icmp eq ptr %16, null
  br i1 %.not15, label %.thread25, label %.thread21

.thread21:                                        ; preds = %2, %4, %8, %15
  %.224 = phi ptr [ %16, %15 ], [ %10, %8 ], [ %6, %4 ], [ %1, %2 ]
  %17 = getelementptr inbounds nuw i8, ptr %.224, i64 32844
  %18 = load i32, ptr %17, align 4, !tbaa !110
  %.not16 = icmp eq i32 %18, 0
  br i1 %.not16, label %.thread25, label %19

19:                                               ; preds = %.thread21
  %20 = getelementptr inbounds nuw i8, ptr %0, i64 136
  store ptr %.224, ptr %20, align 8, !tbaa !61
  br label %.thread25

.thread25:                                        ; preds = %12, %15, %.thread21, %19
  %.0 = phi i32 [ 1, %19 ], [ 0, %.thread21 ], [ 0, %15 ], [ 0, %12 ]
  ret i32 %.0
}